; Function Attrs: nounwind sspstrong uwtable
define dso_local void @tcg_gen_muli_i64(ptr noundef %0, ptr noundef %1, i64 noundef %2) local_unnamed_addr #2 {
  %4 = icmp eq i64 %2, 0
  br i1 %4, label %5, label %is_power_of_2.exit

5:                                                ; preds = %3
  %6 = tail call ptr @tcg_constant_i64(i64 noundef 0) #6
  %7 = icmp eq ptr %0, %6
  br i1 %7, label %tcg_gen_movi_i64.exit, label %8

8:                                                ; preds = %5
  %9 = tail call align 8 ptr @llvm.threadlocal.address.p0(ptr align 8 @tcg_ctx)
  %10 = load ptr, ptr %9, align 8
  %11 = ptrtoint ptr %0 to i64
  %12 = getelementptr inbounds nuw i8, ptr %10, i64 %11
  %13 = ptrtoint ptr %12 to i64
  %14 = ptrtoint ptr %6 to i64
  %15 = getelementptr inbounds nuw i8, ptr %10, i64 %14
  %16 = ptrtoint ptr %15 to i64
  %17 = tail call ptr @tcg_gen_op2(i32 noundef 63, i32 noundef 1, i64 noundef %13, i64 noundef %16)
  br label %tcg_gen_movi_i64.exit

is_power_of_2.exit:                               ; preds = %3
  %18 = tail call range(i64 1, 65) i64 @llvm.ctpop.i64(i64 %2)
  %.not4.i = icmp samesign ult i64 %18, 2
  br i1 %.not4.i, label %19, label %48

19:                                               ; preds = %is_power_of_2.exit
  %20 = tail call range(i64 0, 65) i64 @llvm.cttz.i64(i64 range(i64 1, 0) %2, i1 true)
  %21 = icmp eq i64 %20, 0
  br i1 %21, label %22, label %34

22:                                               ; preds = %19
  %23 = icmp eq ptr %0, %1
  br i1 %23, label %tcg_gen_movi_i64.exit, label %24

24:                                               ; preds = %22
  %25 = tail call align 8 ptr @llvm.threadlocal.address.p0(ptr align 8 @tcg_ctx)
  %26 = load ptr, ptr %25, align 8
  %27 = ptrtoint ptr %0 to i64
  %28 = getelementptr inbounds nuw i8, ptr %26, i64 %27
  %29 = ptrtoint ptr %28 to i64
  %30 = ptrtoint ptr %1 to i64
  %31 = getelementptr inbounds nuw i8, ptr %26, i64 %30
  %32 = ptrtoint ptr %31 to i64
  %33 = tail call ptr @tcg_gen_op2(i32 noundef 63, i32 noundef 1, i64 noundef %29, i64 noundef %32)
  br label %tcg_gen_movi_i64.exit

34:                                               ; preds = %19
  %35 = tail call ptr @tcg_constant_i64(i64 noundef %20) #6
  %36 = tail call align 8 ptr @llvm.threadlocal.address.p0(ptr align 8 @tcg_ctx)
  %37 = load ptr, ptr %36, align 8
  %38 = ptrtoint ptr %0 to i64
  %39 = getelementptr inbounds nuw i8, ptr %37, i64 %38
  %40 = ptrtoint ptr %39 to i64
  %41 = ptrtoint ptr %1 to i64
  %42 = getelementptr inbounds nuw i8, ptr %37, i64 %41
  %43 = ptrtoint ptr %42 to i64
  %44 = ptrtoint ptr %35 to i64
  %45 = getelementptr inbounds nuw i8, ptr %37, i64 %44
  %46 = ptrtoint ptr %45 to i64
  %47 = tail call ptr @tcg_gen_op3(i32 noundef 90, i32 noundef 1, i64 noundef %40, i64 noundef %43, i64 noundef %46)
  br label %tcg_gen_movi_i64.exit

48:                                               ; preds = %is_power_of_2.exit
  %49 = tail call ptr @tcg_constant_i64(i64 noundef %2) #6
  %50 = tail call align 8 ptr @llvm.threadlocal.address.p0(ptr align 8 @tcg_ctx)
  %51 = load ptr, ptr %50, align 8
  %52 = ptrtoint ptr %0 to i64
  %53 = getelementptr inbounds nuw i8, ptr %51, i64 %52
  %54 = ptrtoint ptr %53 to i64
  %55 = ptrtoint ptr %1 to i64
  %56 = getelementptr inbounds nuw i8, ptr %51, i64 %55
  %57 = ptrtoint ptr %56 to i64
  %58 = ptrtoint ptr %49 to i64
  %59 = getelementptr inbounds nuw i8, ptr %51, i64 %58
  %60 = ptrtoint ptr %59 to i64
  %61 = tail call ptr @tcg_gen_op3(i32 noundef 80, i32 noundef 1, i64 noundef %54, i64 noundef %57, i64 noundef %60)
  br label %tcg_gen_movi_i64.exit

tcg_gen_movi_i64.exit:                            ; preds = %34, %24, %22, %8, %5, %48
  ret void
}